; Function Attrs: mustprogress uwtable
define hidden void @_ZN13proof_checker15hyp_decl_plugin12get_op_namesER7svectorI12builtin_namejERK6symbol(ptr nocapture nonnull readnone align 8 %this, ptr noundef nonnull align 8 dereferenceable(8) %op_names, ptr nocapture noundef nonnull readonly align 8 dereferenceable(8) %logic) unnamed_addr #4 align 2 {
entry:
  %ref.tmp = alloca %struct.builtin_name, align 8
  %ref.tmp3 = alloca %struct.builtin_name, align 8
  %ref.tmp5 = alloca %struct.builtin_name, align 8
  %0 = load ptr, ptr %logic, align 8
  %1 = load ptr, ptr @_ZN6symbol4nullE, align 8
  %cmp.i = icmp eq ptr %0, %1
  br i1 %cmp.i, label %if.then, label %if.end

if.then:                                          ; preds = %entry
  store i32 0, ptr %ref.tmp, align 8
  %m_name.i = getelementptr inbounds i8, ptr %ref.tmp, i64 8
  call void @_ZN6symbolC1EPKc(ptr noundef nonnull align 8 dereferenceable(8) %m_name.i, ptr noundef nonnull @.str.1)
  %2 = load ptr, ptr %op_names, align 8
  %cmp.i3 = icmp eq ptr %2, null
  br i1 %cmp.i3, label %if.then.i, label %lor.lhs.false.i

lor.lhs.false.i:                                  ; preds = %if.then
  %arrayidx.i = getelementptr inbounds i8, ptr %2, i64 -4
  %3 = load i32, ptr %arrayidx.i, align 4
  %arrayidx4.i = getelementptr inbounds i8, ptr %2, i64 -8
  %4 = load i32, ptr %arrayidx4.i, align 4
  %cmp5.i = icmp eq i32 %3, %4
  br i1 %cmp5.i, label %if.then.i, label %_ZN6vectorI12builtin_nameLb0EjE9push_backEOS0_.exit

if.then.i:                                        ; preds = %lor.lhs.false.i, %if.then
  call void @_ZN6vectorI12builtin_nameLb0EjE13expand_vectorEv(ptr noundef nonnull align 8 dereferenceable(8) %op_names)
  %.pre.i = load ptr, ptr %op_names, align 8
  %arrayidx8.phi.trans.insert.i = getelementptr inbounds i8, ptr %.pre.i, i64 -4
  %.pre1.i = load i32, ptr %arrayidx8.phi.trans.insert.i, align 4
  br label %_ZN6vectorI12builtin_nameLb0EjE9push_backEOS0_.exit

_ZN6vectorI12builtin_nameLb0EjE9push_backEOS0_.exit: ; preds = %lor.lhs.false.i, %if.then.i
  %5 = phi i32 [ %.pre1.i, %if.then.i ], [ %3, %lor.lhs.false.i ]
  %6 = phi ptr [ %.pre.i, %if.then.i ], [ %2, %lor.lhs.false.i ]
  %idx.ext.i = zext i32 %5 to i64
  %add.ptr.i = getelementptr inbounds %struct.builtin_name, ptr %6, i64 %idx.ext.i
  call void @llvm.memcpy.p0.p0.i64(ptr noundef nonnull align 8 dereferenceable(16) %add.ptr.i, ptr noundef nonnull align 8 dereferenceable(16) %ref.tmp, i64 16, i1 false)
  %7 = load ptr, ptr %op_names, align 8
  %arrayidx10.i = getelementptr inbounds i8, ptr %7, i64 -4
  %8 = load i32, ptr %arrayidx10.i, align 4
  %inc.i = add i32 %8, 1
  store i32 %inc.i, ptr %arrayidx10.i, align 4
  store i32 1, ptr %ref.tmp3, align 8
  %m_name.i4 = getelementptr inbounds i8, ptr %ref.tmp3, i64 8
  call void @_ZN6symbolC1EPKc(ptr noundef nonnull align 8 dereferenceable(8) %m_name.i4, ptr noundef nonnull @.str.2)
  %9 = load ptr, ptr %op_names, align 8
  %cmp.i5 = icmp eq ptr %9, null
  br i1 %cmp.i5, label %if.then.i14, label %lor.lhs.false.i6

lor.lhs.false.i6:                                 ; preds = %_ZN6vectorI12builtin_nameLb0EjE9push_backEOS0_.exit
  %arrayidx.i7 = getelementptr inbounds i8, ptr %9, i64 -4
  %10 = load i32, ptr %arrayidx.i7, align 4
  %arrayidx4.i8 = getelementptr inbounds i8, ptr %9, i64 -8
  %11 = load i32, ptr %arrayidx4.i8, align 4
  %cmp5.i9 = icmp eq i32 %10, %11
  br i1 %cmp5.i9, label %if.then.i14, label %_ZN6vectorI12builtin_nameLb0EjE9push_backEOS0_.exit18

if.then.i14:                                      ; preds = %lor.lhs.false.i6, %_ZN6vectorI12builtin_nameLb0EjE9push_backEOS0_.exit
  call void @_ZN6vectorI12builtin_nameLb0EjE13expand_vectorEv(ptr noundef nonnull align 8 dereferenceable(8) %op_names)
  %.pre.i15 = load ptr, ptr %op_names, align 8
  %arrayidx8.phi.trans.insert.i16 = getelementptr inbounds i8, ptr %.pre.i15, i64 -4
  %.pre1.i17 = load i32, ptr %arrayidx8.phi.trans.insert.i16, align 4
  br label %_ZN6vectorI12builtin_nameLb0EjE9push_backEOS0_.exit18

_ZN6vectorI12builtin_nameLb0EjE9push_backEOS0_.exit18: ; preds = %lor.lhs.false.i6, %if.then.i14
  %12 = phi i32 [ %.pre1.i17, %if.then.i14 ], [ %10, %lor.lhs.false.i6 ]
  %13 = phi ptr [ %.pre.i15, %if.then.i14 ], [ %9, %lor.lhs.false.i6 ]
  %idx.ext.i10 = zext i32 %12 to i64
  %add.ptr.i11 = getelementptr inbounds %struct.builtin_name, ptr %13, i64 %idx.ext.i10
  call void @llvm.memcpy.p0.p0.i64(ptr noundef nonnull align 8 dereferenceable(16) %add.ptr.i11, ptr noundef nonnull align 8 dereferenceable(16) %ref.tmp3, i64 16, i1 false)
  %14 = load ptr, ptr %op_names, align 8
  %arrayidx10.i12 = getelementptr inbounds i8, ptr %14, i64 -4
  %15 = load i32, ptr %arrayidx10.i12, align 4
  %inc.i13 = add i32 %15, 1
  store i32 %inc.i13, ptr %arrayidx10.i12, align 4
  store i32 2, ptr %ref.tmp5, align 8
  %m_name.i19 = getelementptr inbounds i8, ptr %ref.tmp5, i64 8
  call void @_ZN6symbolC1EPKc(ptr noundef nonnull align 8 dereferenceable(8) %m_name.i19, ptr noundef nonnull @.str.3)
  %16 = load ptr, ptr %op_names, align 8
  %cmp.i20 = icmp eq ptr %16, null
  br i1 %cmp.i20, label %if.then.i29, label %lor.lhs.false.i21

lor.lhs.false.i21:                                ; preds = %_ZN6vectorI12builtin_nameLb0EjE9push_backEOS0_.exit18
  %arrayidx.i22 = getelementptr inbounds i8, ptr %16, i64 -4
  %17 = load i32, ptr %arrayidx.i22, align 4
  %arrayidx4.i23 = getelementptr inbounds i8, ptr %16, i64 -8
  %18 = load i32, ptr %arrayidx4.i23, align 4
  %cmp5.i24 = icmp eq i32 %17, %18
  br i1 %cmp5.i24, label %if.then.i29, label %_ZN6vectorI12builtin_nameLb0EjE9push_backEOS0_.exit33

if.then.i29:                                      ; preds = %lor.lhs.false.i21, %_ZN6vectorI12builtin_nameLb0EjE9push_backEOS0_.exit18
  call void @_ZN6vectorI12builtin_nameLb0EjE13expand_vectorEv(ptr noundef nonnull align 8 dereferenceable(8) %op_names)
  %.pre.i30 = load ptr, ptr %op_names, align 8
  %arrayidx8.phi.trans.insert.i31 = getelementptr inbounds i8, ptr %.pre.i30, i64 -4
  %.pre1.i32 = load i32, ptr %arrayidx8.phi.trans.insert.i31, align 4
  br label %_ZN6vectorI12builtin_nameLb0EjE9push_backEOS0_.exit33

_ZN6vectorI12builtin_nameLb0EjE9push_backEOS0_.exit33: ; preds = %lor.lhs.false.i21, %if.then.i29
  %19 = phi i32 [ %.pre1.i32, %if.then.i29 ], [ %17, %lor.lhs.false.i21 ]
  %20 = phi ptr [ %.pre.i30, %if.then.i29 ], [ %16, %lor.lhs.false.i21 ]
  %idx.ext.i25 = zext i32 %19 to i64
  %add.ptr.i26 = getelementptr inbounds %struct.builtin_name, ptr %20, i64 %idx.ext.i25
  call void @llvm.memcpy.p0.p0.i64(ptr noundef nonnull align 8 dereferenceable(16) %add.ptr.i26, ptr noundef nonnull align 8 dereferenceable(16) %ref.tmp5, i64 16, i1 false)
  %21 = load ptr, ptr %op_names, align 8
  %arrayidx10.i27 = getelementptr inbounds i8, ptr %21, i64 -4
  %22 = load i32, ptr %arrayidx10.i27, align 4
  %inc.i28 = add i32 %22, 1
  store i32 %inc.i28, ptr %arrayidx10.i27, align 4
  br label %if.end

if.end:                                           ; preds = %_ZN6vectorI12builtin_nameLb0EjE9push_backEOS0_.exit33, %entry
  ret void
}